target datalayout = "e-m:e-p270:32:32-p271:32:32-p272:64:64-i64:64-i128:128-f80:128-n8:16:32:64-S128"
target triple = "x86_64-pc-linux-gnu"

%struct.Gia_Obj_t_ = type <{ i64, i32 }>
%struct.Gia_Man_t_ = type { ptr, ptr, i32, i32, i32, i32, ptr, ptr, i32, i32, i32, ptr, ptr, %struct.Vec_Int_t_, %struct.Vec_Int_t_, i32, i32, i32, %struct.Vec_Int_t_, ptr, ptr, ptr, i32, i32, i32, i32, ptr, ptr, ptr, ptr, ptr, i32, i32, ptr, i32, ptr, ptr, ptr, ptr, ptr, ptr, ptr, ptr, ptr, ptr, ptr, ptr, ptr, ptr, ptr, ptr, ptr, ptr, %struct.Vec_Int_t_, %struct.Vec_Int_t_, ptr, ptr, ptr, ptr, ptr, ptr, ptr, ptr, ptr, ptr, ptr, ptr, ptr, ptr, ptr, ptr, ptr, ptr, ptr, ptr, ptr, i32, float, float, ptr, ptr, i32, ptr, ptr, ptr, ptr, ptr, ptr, ptr, ptr, ptr, ptr, ptr, ptr, ptr, ptr, ptr, i64, i64, ptr, ptr, i32, i32, i32, i32, i32, i32, i32, i32, i32, i32, i32, i32, ptr, ptr, ptr, ptr, ptr, ptr, ptr, ptr, i32, i32, i32, ptr, i32, i32, ptr, ptr, ptr, ptr, ptr, ptr, i32, i32, ptr, %struct.Vec_Int_t_, %struct.Vec_Int_t_, %struct.Vec_Int_t_, ptr, ptr, ptr, i32, i32, i32, i32, ptr, ptr, ptr, ptr, ptr }
%struct.Vec_Int_t_ = type { i32, i32, ptr }
%struct.Bmc_Mna_t_ = type { ptr, ptr, ptr, ptr, ptr, ptr, ptr, ptr, i32, i64 }
%struct.Abc_Cex_t_ = type { i32, i32, i32, i32, i32, [0 x i32] }
%struct.sat_solver_t = type { i32, i32, i32, i32, %struct.Sat_Mem_t_, i32, i32, ptr, ptr, i32, i32, i32, i32, i32, i64, i64, i64, ptr, ptr, i32, i32, %struct.veci_t, ptr, i32, ptr, ptr, ptr, ptr, ptr, ptr, ptr, ptr, %struct.veci_t, %struct.veci_t, %struct.veci_t, %struct.veci_t, ptr, %struct.veci_t, i32, i32, i32, double, double, i32, i32, i32, %struct.stats_t, i32, i32, i32, i32, i32, i64, i64, i64, %struct.veci_t, ptr, i32, i32, i32, %struct.veci_t, %struct.veci_t, i32, i32, i32, ptr, ptr, i32, ptr, i32, i32, %struct.veci_t, %struct.veci_t, %struct.veci_t, ptr, ptr, i32, ptr }
%struct.Sat_Mem_t_ = type { [2 x i32], [2 x i32], [2 x i32], [2 x i32], i32, i32, i32, i32, ptr }
%struct.stats_t = type { i32, i32, i32, i64, i64, i64, i64, i64, i64, i64 }
%struct.veci_t = type { i32, i32, ptr }

; Function Attrs: inlinehint nounwind uwtable
define internal ptr @Gia_ManObj(ptr noundef %0, i32 noundef %1) #2 {
  %3 = alloca ptr, align 8
  %4 = alloca i32, align 4
  store ptr %0, ptr %3, align 8, !tbaa !3
  store i32 %1, ptr %4, align 4, !tbaa !8
  %5 = load ptr, ptr %3, align 8, !tbaa !3
  %6 = getelementptr inbounds nuw %struct.Gia_Man_t_, ptr %5, i32 0, i32 6
  %7 = load ptr, ptr %6, align 8, !tbaa !44
  %8 = load i32, ptr %4, align 4, !tbaa !8
  %9 = sext i32 %8 to i64
  %10 = getelementptr inbounds %struct.Gia_Obj_t_, ptr %7, i64 %9
  ret ptr %10
}

; Function Attrs: inlinehint nounwind uwtable
define internal ptr @Gia_ManCi(ptr noundef %0, i32 noundef %1) #2 {
  %3 = alloca ptr, align 8
  %4 = alloca i32, align 4
  store ptr %0, ptr %3, align 8, !tbaa !3
  store i32 %1, ptr %4, align 4, !tbaa !8
  %5 = load ptr, ptr %3, align 8, !tbaa !3
  %6 = load ptr, ptr %3, align 8, !tbaa !3
  %7 = getelementptr inbounds nuw %struct.Gia_Man_t_, ptr %6, i32 0, i32 11
  %8 = load ptr, ptr %7, align 8, !tbaa !45
  %9 = load i32, ptr %4, align 4, !tbaa !8
  %10 = call i32 @Vec_IntEntry(ptr noundef %8, i32 noundef %9)
  %11 = call ptr @Gia_ManObj(ptr noundef %5, i32 noundef %10)
  ret ptr %11
}

; Function Attrs: inlinehint nounwind uwtable
define internal void @Abc_InfoSetBit(ptr noundef %0, i32 noundef %1) #2 {
  %3 = alloca ptr, align 8
  %4 = alloca i32, align 4
  store ptr %0, ptr %3, align 8, !tbaa !10
  store i32 %1, ptr %4, align 4, !tbaa !8
  %5 = load i32, ptr %4, align 4, !tbaa !8
  %6 = and i32 %5, 31
  %7 = shl i32 1, %6
  %8 = load ptr, ptr %3, align 8, !tbaa !10
  %9 = load i32, ptr %4, align 4, !tbaa !8
  %10 = ashr i32 %9, 5
  %11 = sext i32 %10 to i64
  %12 = getelementptr inbounds i32, ptr %8, i64 %11
  %13 = load i32, ptr %12, align 4, !tbaa !8
  %14 = or i32 %13, %7
  store i32 %14, ptr %12, align 4, !tbaa !8
  ret void
}

; Function Attrs: inlinehint nounwind uwtable
define internal i32 @sat_solver_var_value(ptr noundef %0, i32 noundef %1) #2 {
  %3 = alloca ptr, align 8
  %4 = alloca i32, align 4
  store ptr %0, ptr %3, align 8, !tbaa !136
  store i32 %1, ptr %4, align 4, !tbaa !8
  %5 = load ptr, ptr %3, align 8, !tbaa !136
  %6 = getelementptr inbounds nuw %struct.sat_solver_t, ptr %5, i32 0, i32 36
  %7 = load ptr, ptr %6, align 8, !tbaa !137
  %8 = load i32, ptr %4, align 4, !tbaa !8
  %9 = sext i32 %8 to i64
  %10 = getelementptr inbounds i32, ptr %7, i64 %9
  %11 = load i32, ptr %10, align 4, !tbaa !8
  %12 = icmp eq i32 %11, 1
  %13 = zext i1 %12 to i32
  ret i32 %13
}

; Function Attrs: inlinehint nounwind uwtable
define internal i32 @Gia_ObjId(ptr noundef %0, ptr noundef %1) #2 {
  %3 = alloca ptr, align 8
  %4 = alloca ptr, align 8
  store ptr %0, ptr %3, align 8, !tbaa !3
  store ptr %1, ptr %4, align 8, !tbaa !16
  %5 = load ptr, ptr %4, align 8, !tbaa !16
  %6 = load ptr, ptr %3, align 8, !tbaa !3
  %7 = getelementptr inbounds nuw %struct.Gia_Man_t_, ptr %6, i32 0, i32 6
  %8 = load ptr, ptr %7, align 8, !tbaa !44
  %9 = ptrtoint ptr %5 to i64
  %10 = ptrtoint ptr %8 to i64
  %11 = sub i64 %9, %10
  %12 = sdiv exact i64 %11, 12
  %13 = trunc i64 %12 to i32
  ret i32 %13
}

; Function Attrs: inlinehint nounwind uwtable
define internal ptr @Gia_ManPi(ptr noundef %0, i32 noundef %1) #2 {
  %3 = alloca ptr, align 8
  %4 = alloca i32, align 4
  store ptr %0, ptr %3, align 8, !tbaa !3
  store i32 %1, ptr %4, align 4, !tbaa !8
  %5 = load ptr, ptr %3, align 8, !tbaa !3
  %6 = load i32, ptr %4, align 4, !tbaa !8
  %7 = call ptr @Gia_ManCi(ptr noundef %5, i32 noundef %6)
  ret ptr %7
}

; Function Attrs: inlinehint nounwind uwtable
define internal i32 @Vec_IntEntry(ptr noundef %0, i32 noundef %1) #2 {
  %3 = alloca ptr, align 8
  %4 = alloca i32, align 4
  store ptr %0, ptr %3, align 8, !tbaa !51
  store i32 %1, ptr %4, align 4, !tbaa !8
  %5 = load ptr, ptr %3, align 8, !tbaa !51
  %6 = getelementptr inbounds nuw %struct.Vec_Int_t_, ptr %5, i32 0, i32 2
  %7 = load ptr, ptr %6, align 8, !tbaa !56
  %8 = load i32, ptr %4, align 4, !tbaa !8
  %9 = sext i32 %8 to i64
  %10 = getelementptr inbounds i32, ptr %7, i64 %9
  %11 = load i32, ptr %10, align 4, !tbaa !8
  ret i32 %11
}

; Function Attrs: inlinehint nounwind uwtable
define internal i32 @Vec_IntSize(ptr noundef %0) #2 {
  %2 = alloca ptr, align 8
  store ptr %0, ptr %2, align 8, !tbaa !51
  %3 = load ptr, ptr %2, align 8, !tbaa !51
  %4 = getelementptr inbounds nuw %struct.Vec_Int_t_, ptr %3, i32 0, i32 1
  %5 = load i32, ptr %4, align 4, !tbaa !52
  ret i32 %5
}

; Function Attrs: inlinehint nounwind uwtable
define internal i32 @Gia_ManPoNum(ptr noundef %0) #2 {
  %2 = alloca ptr, align 8
  store ptr %0, ptr %2, align 8, !tbaa !3
  %3 = load ptr, ptr %2, align 8, !tbaa !3
  %4 = getelementptr inbounds nuw %struct.Gia_Man_t_, ptr %3, i32 0, i32 12
  %5 = load ptr, ptr %4, align 8, !tbaa !41
  %6 = call i32 @Vec_IntSize(ptr noundef %5)
  %7 = load ptr, ptr %2, align 8, !tbaa !3
  %8 = getelementptr inbounds nuw %struct.Gia_Man_t_, ptr %7, i32 0, i32 2
  %9 = load i32, ptr %8, align 8, !tbaa !46
  %10 = sub nsw i32 %6, %9
  ret i32 %10
}

; Function Attrs: inlinehint nounwind uwtable
define internal i32 @Gia_ManPiNum(ptr noundef %0) #2 {
  %2 = alloca ptr, align 8
  store ptr %0, ptr %2, align 8, !tbaa !3
  %3 = load ptr, ptr %2, align 8, !tbaa !3
  %4 = getelementptr inbounds nuw %struct.Gia_Man_t_, ptr %3, i32 0, i32 11
  %5 = load ptr, ptr %4, align 8, !tbaa !45
  %6 = call i32 @Vec_IntSize(ptr noundef %5)
  %7 = load ptr, ptr %2, align 8, !tbaa !3
  %8 = getelementptr inbounds nuw %struct.Gia_Man_t_, ptr %7, i32 0, i32 2
  %9 = load i32, ptr %8, align 8, !tbaa !46
  %10 = sub nsw i32 %6, %9
  ret i32 %10
}

; Function Attrs: inlinehint nounwind uwtable
define internal i32 @Gia_ManRegNum(ptr noundef %0) #2 {
  %2 = alloca ptr, align 8
  store ptr %0, ptr %2, align 8, !tbaa !3
  %3 = load ptr, ptr %2, align 8, !tbaa !3
  %4 = getelementptr inbounds nuw %struct.Gia_Man_t_, ptr %3, i32 0, i32 2
  %5 = load i32, ptr %4, align 8, !tbaa !46
  ret i32 %5
}

; Function Attrs: nounwind uwtable
define ptr @Gia_ManBmcCexGen(ptr noundef %0, ptr noundef %1, i32 noundef %2) #0 {
  %4 = alloca ptr, align 8
  %5 = alloca ptr, align 8
  %6 = alloca i32, align 4
  %7 = alloca ptr, align 8
  %8 = alloca i32, align 4
  %9 = alloca i32, align 4
  %10 = alloca i32, align 4
  %11 = alloca i32, align 4
  %12 = alloca i32, align 4
  %13 = alloca i32, align 4
  store ptr %0, ptr %4, align 8, !tbaa !76
  store ptr %1, ptr %5, align 8, !tbaa !3
  store i32 %2, ptr %6, align 4, !tbaa !8
  call void @llvm.lifetime.start.p0(i64 8, ptr %7) #12
  call void @llvm.lifetime.start.p0(i64 4, ptr %8) #12
  call void @llvm.lifetime.start.p0(i64 4, ptr %9) #12
  call void @llvm.lifetime.start.p0(i64 4, ptr %10) #12
  call void @llvm.lifetime.start.p0(i64 4, ptr %11) #12
  call void @llvm.lifetime.start.p0(i64 4, ptr %12) #12
  store i32 0, ptr %12, align 4, !tbaa !8
  call void @llvm.lifetime.start.p0(i64 4, ptr %13) #12
  store i32 -1, ptr %13, align 4, !tbaa !8
  %14 = load ptr, ptr %5, align 8, !tbaa !3
  %15 = call i32 @Gia_ManRegNum(ptr noundef %14)
  %16 = load ptr, ptr %5, align 8, !tbaa !3
  %17 = call i32 @Gia_ManPiNum(ptr noundef %16)
  %18 = load i32, ptr %6, align 4, !tbaa !8
  %19 = load ptr, ptr %5, align 8, !tbaa !3
  %20 = call i32 @Gia_ManPoNum(ptr noundef %19)
  %21 = sdiv i32 %18, %20
  %22 = add nsw i32 %21, 1
  %23 = call ptr @Abc_CexAlloc(i32 noundef %15, i32 noundef %17, i32 noundef %22)
  store ptr %23, ptr %7, align 8, !tbaa !130
  %24 = load i32, ptr %6, align 4, !tbaa !8
  %25 = load ptr, ptr %5, align 8, !tbaa !3
  %26 = call i32 @Gia_ManPoNum(ptr noundef %25)
  %27 = sdiv i32 %24, %26
  %28 = load ptr, ptr %7, align 8, !tbaa !130
  %29 = getelementptr inbounds nuw %struct.Abc_Cex_t_, ptr %28, i32 0, i32 1
  store i32 %27, ptr %29, align 4, !tbaa !131
  %30 = load i32, ptr %6, align 4, !tbaa !8
  %31 = load ptr, ptr %5, align 8, !tbaa !3
  %32 = call i32 @Gia_ManPoNum(ptr noundef %31)
  %33 = srem i32 %30, %32
  %34 = load ptr, ptr %7, align 8, !tbaa !130
  %35 = getelementptr inbounds nuw %struct.Abc_Cex_t_, ptr %34, i32 0, i32 0
  store i32 %33, ptr %35, align 4, !tbaa !133
  store i32 0, ptr %8, align 4, !tbaa !8
  br label %36

36:                                               ; preds = %95, %3
  %37 = load i32, ptr %8, align 4, !tbaa !8
  %38 = load ptr, ptr %4, align 8, !tbaa !76
  %39 = getelementptr inbounds nuw %struct.Bmc_Mna_t_, ptr %38, i32 0, i32 2
  %40 = load ptr, ptr %39, align 8, !tbaa !134
  %41 = call i32 @Vec_IntSize(ptr noundef %40)
  %42 = icmp slt i32 %37, %41
  br i1 %42, label %43, label %49

43:                                               ; preds = %36
  %44 = load ptr, ptr %4, align 8, !tbaa !76
  %45 = getelementptr inbounds nuw %struct.Bmc_Mna_t_, ptr %44, i32 0, i32 2
  %46 = load ptr, ptr %45, align 8, !tbaa !134
  %47 = load i32, ptr %8, align 4, !tbaa !8
  %48 = call i32 @Vec_IntEntry(ptr noundef %46, i32 noundef %47)
  store i32 %48, ptr %11, align 4, !tbaa !8
  br label %49

49:                                               ; preds = %43, %36
  %50 = phi i1 [ false, %36 ], [ true, %43 ]
  br i1 %50, label %51, label %98

51:                                               ; preds = %49
  %52 = load i32, ptr %11, align 4, !tbaa !8
  %53 = icmp slt i32 %52, 0
  br i1 %53, label %54, label %58

54:                                               ; preds = %51
  %55 = load i32, ptr %11, align 4, !tbaa !8
  %56 = sub nsw i32 0, %55
  %57 = sub nsw i32 %56, 1
  store i32 %57, ptr %13, align 4, !tbaa !8
  br label %95

58:                                               ; preds = %51
  %59 = load ptr, ptr %4, align 8, !tbaa !76
  %60 = getelementptr inbounds nuw %struct.Bmc_Mna_t_, ptr %59, i32 0, i32 0
  %61 = load ptr, ptr %60, align 8, !tbaa !111
  %62 = load ptr, ptr %4, align 8, !tbaa !76
  %63 = getelementptr inbounds nuw %struct.Bmc_Mna_t_, ptr %62, i32 0, i32 0
  %64 = load ptr, ptr %63, align 8, !tbaa !111
  %65 = load i32, ptr %12, align 4, !tbaa !8
  %66 = call ptr @Gia_ManPi(ptr noundef %64, i32 noundef %65)
  %67 = call i32 @Gia_ObjId(ptr noundef %61, ptr noundef %66)
  store i32 %67, ptr %9, align 4, !tbaa !8
  %68 = load ptr, ptr %4, align 8, !tbaa !76
  %69 = getelementptr inbounds nuw %struct.Bmc_Mna_t_, ptr %68, i32 0, i32 3
  %70 = load ptr, ptr %69, align 8, !tbaa !78
  %71 = load i32, ptr %9, align 4, !tbaa !8
  %72 = call i32 @Vec_IntEntry(ptr noundef %70, i32 noundef %71)
  store i32 %72, ptr %10, align 4, !tbaa !8
  %73 = load ptr, ptr %4, align 8, !tbaa !76
  %74 = getelementptr inbounds nuw %struct.Bmc_Mna_t_, ptr %73, i32 0, i32 7
  %75 = load ptr, ptr %74, align 8, !tbaa !85
  %76 = load i32, ptr %10, align 4, !tbaa !8
  %77 = call i32 @sat_solver_var_value(ptr noundef %75, i32 noundef %76)
  %78 = icmp ne i32 %77, 0
  br i1 %78, label %79, label %92

79:                                               ; preds = %58
  %80 = load ptr, ptr %7, align 8, !tbaa !130
  %81 = getelementptr inbounds nuw %struct.Abc_Cex_t_, ptr %80, i32 0, i32 5
  %82 = getelementptr inbounds [0 x i32], ptr %81, i64 0, i64 0
  %83 = load ptr, ptr %5, align 8, !tbaa !3
  %84 = call i32 @Gia_ManRegNum(ptr noundef %83)
  %85 = load ptr, ptr %5, align 8, !tbaa !3
  %86 = call i32 @Gia_ManPiNum(ptr noundef %85)
  %87 = load i32, ptr %13, align 4, !tbaa !8
  %88 = mul nsw i32 %86, %87
  %89 = add nsw i32 %84, %88
  %90 = load i32, ptr %11, align 4, !tbaa !8
  %91 = add nsw i32 %89, %90
  call void @Abc_InfoSetBit(ptr noundef %82, i32 noundef %91)
  br label %92

92:                                               ; preds = %79, %58
  %93 = load i32, ptr %12, align 4, !tbaa !8
  %94 = add nsw i32 %93, 1
  store i32 %94, ptr %12, align 4, !tbaa !8
  br label %95

95:                                               ; preds = %92, %54
  %96 = load i32, ptr %8, align 4, !tbaa !8
  %97 = add nsw i32 %96, 1
  store i32 %97, ptr %8, align 4, !tbaa !8
  br label %36, !llvm.loop !135

98:                                               ; preds = %49
  %99 = load ptr, ptr %7, align 8, !tbaa !130
  call void @llvm.lifetime.end.p0(i64 4, ptr %13) #12
  call void @llvm.lifetime.end.p0(i64 4, ptr %12) #12
  call void @llvm.lifetime.end.p0(i64 4, ptr %11) #12
  call void @llvm.lifetime.end.p0(i64 4, ptr %10) #12
  call void @llvm.lifetime.end.p0(i64 4, ptr %9) #12
  call void @llvm.lifetime.end.p0(i64 4, ptr %8) #12
  call void @llvm.lifetime.end.p0(i64 8, ptr %7) #12
  ret ptr %99
}