; Function Attrs: nounwind uwtable
define noundef ptr @Gia_ManBmcCexGen(ptr noundef readonly captures(none) %0, ptr noundef readonly captures(none) %1, i32 noundef %2) local_unnamed_addr #0 {
  %4 = getelementptr i8, ptr %1, i64 16
  %.val42 = load i32, ptr %4, align 8, !tbaa !35
  %5 = getelementptr i8, ptr %1, i64 64
  %.val38 = load ptr, ptr %5, align 8, !tbaa !36
  %6 = getelementptr i8, ptr %.val38, i64 4
  %.val38.val = load i32, ptr %6, align 4, !tbaa !28
  %7 = sub nsw i32 %.val38.val, %.val42
  %8 = getelementptr i8, ptr %1, i64 72
  %.val48 = load ptr, ptr %8, align 8, !tbaa !3
  %9 = getelementptr i8, ptr %.val48, i64 4
  %.val48.val = load i32, ptr %9, align 4, !tbaa !28
  %10 = sub nsw i32 %.val48.val, %.val42
  %11 = sdiv i32 %2, %10
  %12 = add nsw i32 %11, 1
  %13 = tail call ptr @Abc_CexAlloc(i32 noundef %.val42, i32 noundef %7, i32 noundef %12) #19
  %.val45 = load i32, ptr %4, align 8, !tbaa !35
  %.val46 = load ptr, ptr %8, align 8, !tbaa !3
  %14 = getelementptr i8, ptr %.val46, i64 4
  %.val46.val = load i32, ptr %14, align 4, !tbaa !28
  %15 = sub nsw i32 %.val46.val, %.val45
  %16 = sdiv i32 %2, %15
  %17 = getelementptr inbounds nuw i8, ptr %13, i64 4
  store i32 %16, ptr %17, align 4, !tbaa !119
  %18 = srem i32 %2, %15
  store i32 %18, ptr %13, align 4, !tbaa !121
  %19 = getelementptr inbounds nuw i8, ptr %0, i64 16
  %20 = load ptr, ptr %19, align 8, !tbaa !122
  %21 = getelementptr i8, ptr %20, i64 4
  %.val53 = load i32, ptr %21, align 4, !tbaa !28
  %22 = icmp sgt i32 %.val53, 0
  br i1 %22, label %.lr.ph, label %.critedge

.lr.ph:                                           ; preds = %3
  %23 = getelementptr i8, ptr %20, i64 8
  %.val40 = load ptr, ptr %23, align 8, !tbaa !37
  %24 = getelementptr inbounds nuw i8, ptr %0, i64 24
  %25 = getelementptr inbounds nuw i8, ptr %0, i64 56
  %26 = getelementptr inbounds nuw i8, ptr %13, i64 20
  br label %27

27:                                               ; preds = %.lr.ph, %65
  %.val.pre60 = phi i32 [ %.val53, %.lr.ph ], [ %.val.pre61, %65 ]
  %.val58 = phi i32 [ %.val53, %.lr.ph ], [ %.val, %65 ]
  %indvars.iv = phi i64 [ 0, %.lr.ph ], [ %indvars.iv.next, %65 ]
  %.056 = phi i32 [ -1, %.lr.ph ], [ %.1, %65 ]
  %.03055 = phi i32 [ 0, %.lr.ph ], [ %.131, %65 ]
  %28 = getelementptr inbounds nuw i32, ptr %.val40, i64 %indvars.iv
  %29 = load i32, ptr %28, align 4, !tbaa !38
  %30 = icmp slt i32 %29, 0
  br i1 %30, label %31, label %33

31:                                               ; preds = %27
  %32 = xor i32 %29, -1
  br label %65

33:                                               ; preds = %27
  %34 = load ptr, ptr %0, align 8, !tbaa !105
  %35 = getelementptr i8, ptr %34, i64 64
  %.val51 = load ptr, ptr %35, align 8, !tbaa !36
  %36 = getelementptr i8, ptr %.val51, i64 8
  %.val51.val = load ptr, ptr %36, align 8, !tbaa !37
  %37 = sext i32 %.03055 to i64
  %38 = getelementptr inbounds i32, ptr %.val51.val, i64 %37
  %39 = load i32, ptr %38, align 4, !tbaa !38
  %40 = load ptr, ptr %24, align 8, !tbaa !73
  %41 = getelementptr i8, ptr %40, i64 8
  %.val39 = load ptr, ptr %41, align 8, !tbaa !37
  %42 = sext i32 %39 to i64
  %43 = getelementptr inbounds i32, ptr %.val39, i64 %42
  %44 = load i32, ptr %43, align 4, !tbaa !38
  %45 = load ptr, ptr %25, align 8, !tbaa !80
  %46 = getelementptr i8, ptr %45, i64 328
  %.val52 = load ptr, ptr %46, align 8, !tbaa !123
  %47 = sext i32 %44 to i64
  %48 = getelementptr inbounds i32, ptr %.val52, i64 %47
  %49 = load i32, ptr %48, align 4, !tbaa !38
  %.not = icmp eq i32 %49, 1
  br i1 %.not, label %50, label %63

50:                                               ; preds = %33
  %.val41 = load i32, ptr %4, align 8, !tbaa !35
  %.val36 = load ptr, ptr %5, align 8, !tbaa !36
  %51 = getelementptr i8, ptr %.val36, i64 4
  %.val36.val = load i32, ptr %51, align 4, !tbaa !28
  %52 = sub nsw i32 %.val36.val, %.val41
  %53 = mul nsw i32 %52, %.056
  %54 = add i32 %.val41, %29
  %55 = add i32 %54, %53
  %56 = and i32 %55, 31
  %57 = shl nuw i32 1, %56
  %58 = ashr i32 %55, 5
  %59 = sext i32 %58 to i64
  %60 = getelementptr inbounds i32, ptr %26, i64 %59
  %61 = load i32, ptr %60, align 4, !tbaa !38
  %62 = or i32 %57, %61
  store i32 %62, ptr %60, align 4, !tbaa !38
  %.val.pre.pre = load i32, ptr %21, align 4, !tbaa !28
  br label %63

63:                                               ; preds = %50, %33
  %.val.pre = phi i32 [ %.val.pre.pre, %50 ], [ %.val.pre60, %33 ]
  %64 = add nsw i32 %.03055, 1
  br label %65

65:                                               ; preds = %63, %31
  %.val.pre61 = phi i32 [ %.val.pre60, %31 ], [ %.val.pre, %63 ]
  %.val = phi i32 [ %.val58, %31 ], [ %.val.pre, %63 ]
  %.131 = phi i32 [ %.03055, %31 ], [ %64, %63 ]
  %.1 = phi i32 [ %32, %31 ], [ %.056, %63 ]
  %indvars.iv.next = add nuw nsw i64 %indvars.iv, 1
  %66 = sext i32 %.val to i64
  %67 = icmp slt i64 %indvars.iv.next, %66
  br i1 %67, label %27, label %.critedge, !llvm.loop !134

.critedge:                                        ; preds = %65, %3
  ret ptr %13
}